target datalayout = "e-m:e-p270:32:32-p271:32:32-p272:64:64-i64:64-i128:128-f80:128-n8:16:32:64-S128"
target triple = "x86_64-pc-linux-gnu"

%struct.tr2_tgt = type { ptr, ptr, ptr, ptr, ptr, ptr, ptr, ptr, ptr, ptr, ptr, ptr, ptr, ptr, ptr, ptr, ptr, ptr, ptr, ptr, ptr, ptr, ptr, ptr, ptr, ptr, ptr, ptr, ptr, ptr }
%struct.child_process = type { %struct.strvec, %struct.strvec, i32, i32, i64, ptr, ptr, i32, i32, i32, ptr, i16, ptr }
%struct.strvec = type { ptr, i64, i64 }

@trace2_enabled = internal global i32 0, align 4
@tr2_tgt_builtins = internal global [4 x ptr] [ptr @tr2_tgt_normal, ptr @tr2_tgt_perf, ptr @tr2_tgt_event, ptr null], align 16
@tr2_next_child_id = internal global i32 0, align 4

; Function Attrs: nounwind uwtable
define internal void @free_redacted_argv(ptr noundef %0, ptr noundef %1) #0 {
  %3 = alloca ptr, align 8
  %4 = alloca ptr, align 8
  %5 = alloca i32, align 4
  store ptr %0, ptr %3, align 8, !tbaa !27
  store ptr %1, ptr %4, align 8, !tbaa !27
  call void @llvm.lifetime.start.p0(i64 4, ptr %5) #9
  %6 = load ptr, ptr %3, align 8, !tbaa !27
  %7 = load ptr, ptr %4, align 8, !tbaa !27
  %8 = icmp ne ptr %6, %7
  br i1 %8, label %9, label %41

9:                                                ; preds = %2
  store i32 0, ptr %5, align 4, !tbaa !9
  br label %10

10:                                               ; preds = %36, %9
  %11 = load ptr, ptr %4, align 8, !tbaa !27
  %12 = load i32, ptr %5, align 4, !tbaa !9
  %13 = sext i32 %12 to i64
  %14 = getelementptr inbounds ptr, ptr %11, i64 %13
  %15 = load ptr, ptr %14, align 8, !tbaa !4
  %16 = icmp ne ptr %15, null
  br i1 %16, label %17, label %39

17:                                               ; preds = %10
  %18 = load ptr, ptr %3, align 8, !tbaa !27
  %19 = load i32, ptr %5, align 4, !tbaa !9
  %20 = sext i32 %19 to i64
  %21 = getelementptr inbounds ptr, ptr %18, i64 %20
  %22 = load ptr, ptr %21, align 8, !tbaa !4
  %23 = load ptr, ptr %4, align 8, !tbaa !27
  %24 = load i32, ptr %5, align 4, !tbaa !9
  %25 = sext i32 %24 to i64
  %26 = getelementptr inbounds ptr, ptr %23, i64 %25
  %27 = load ptr, ptr %26, align 8, !tbaa !4
  %28 = icmp ne ptr %22, %27
  br i1 %28, label %29, label %35

29:                                               ; preds = %17
  %30 = load ptr, ptr %3, align 8, !tbaa !27
  %31 = load i32, ptr %5, align 4, !tbaa !9
  %32 = sext i32 %31 to i64
  %33 = getelementptr inbounds ptr, ptr %30, i64 %32
  %34 = load ptr, ptr %33, align 8, !tbaa !4
  call void @free(ptr noundef %34) #9
  br label %35

35:                                               ; preds = %29, %17
  br label %36

36:                                               ; preds = %35
  %37 = load i32, ptr %5, align 4, !tbaa !9
  %38 = add nsw i32 %37, 1
  store i32 %38, ptr %5, align 4, !tbaa !9
  br label %10, !llvm.loop !35

39:                                               ; preds = %10
  %40 = load ptr, ptr %3, align 8, !tbaa !27
  call void @free(ptr noundef %40) #9
  br label %41

41:                                               ; preds = %39, %2
  call void @llvm.lifetime.end.p0(i64 4, ptr %5) #9
  ret void
}

; Function Attrs: nounwind uwtable
define dso_local void @trace2_child_start_fl(ptr noundef %0, i32 noundef %1, ptr noundef %2) #0 {
  %4 = alloca ptr, align 8
  %5 = alloca i32, align 4
  %6 = alloca ptr, align 8
  %7 = alloca ptr, align 8
  %8 = alloca i32, align 4
  %9 = alloca i64, align 8
  %10 = alloca i64, align 8
  %11 = alloca ptr, align 8
  %12 = alloca i32, align 4
  store ptr %0, ptr %4, align 8, !tbaa !4
  store i32 %1, ptr %5, align 4, !tbaa !9
  store ptr %2, ptr %6, align 8, !tbaa !52
  call void @llvm.lifetime.start.p0(i64 8, ptr %7) #9
  call void @llvm.lifetime.start.p0(i64 4, ptr %8) #9
  call void @llvm.lifetime.start.p0(i64 8, ptr %9) #9
  call void @llvm.lifetime.start.p0(i64 8, ptr %10) #9
  call void @llvm.lifetime.start.p0(i64 8, ptr %11) #9
  %13 = load ptr, ptr %6, align 8, !tbaa !52
  %14 = getelementptr inbounds nuw %struct.child_process, ptr %13, i32 0, i32 0
  %15 = getelementptr inbounds nuw %struct.strvec, ptr %14, i32 0, i32 0
  %16 = load ptr, ptr %15, align 8, !tbaa !54
  store ptr %16, ptr %11, align 8, !tbaa !27
  %17 = load i32, ptr @trace2_enabled, align 4, !tbaa !9
  %18 = icmp ne i32 %17, 0
  br i1 %18, label %20, label %19

19:                                               ; preds = %3
  store i32 1, ptr %12, align 4
  br label %89

20:                                               ; preds = %3
  %21 = call i64 @getnanotime()
  %22 = udiv i64 %21, 1000
  store i64 %22, ptr %9, align 8, !tbaa !21
  %23 = load i64, ptr %9, align 8, !tbaa !21
  %24 = call i64 @tr2tls_absolute_elapsed(i64 noundef %23)
  store i64 %24, ptr %10, align 8, !tbaa !21
  %25 = call i32 @tr2tls_locked_increment(ptr noundef @tr2_next_child_id)
  %26 = load ptr, ptr %6, align 8, !tbaa !52
  %27 = getelementptr inbounds nuw %struct.child_process, ptr %26, i32 0, i32 3
  store i32 %25, ptr %27, align 4, !tbaa !57
  %28 = load i64, ptr %9, align 8, !tbaa !21
  %29 = load ptr, ptr %6, align 8, !tbaa !52
  %30 = getelementptr inbounds nuw %struct.child_process, ptr %29, i32 0, i32 4
  store i64 %28, ptr %30, align 8, !tbaa !58
  %31 = load ptr, ptr %11, align 8, !tbaa !27
  %32 = call ptr @redact_argv(ptr noundef %31)
  %33 = load ptr, ptr %6, align 8, !tbaa !52
  %34 = getelementptr inbounds nuw %struct.child_process, ptr %33, i32 0, i32 0
  %35 = getelementptr inbounds nuw %struct.strvec, ptr %34, i32 0, i32 0
  store ptr %32, ptr %35, align 8, !tbaa !54
  store i32 0, ptr %8, align 4, !tbaa !9
  %36 = load i32, ptr %8, align 4, !tbaa !9
  %37 = sext i32 %36 to i64
  %38 = getelementptr inbounds [4 x ptr], ptr @tr2_tgt_builtins, i64 0, i64 %37
  %39 = load ptr, ptr %38, align 8, !tbaa !11
  store ptr %39, ptr %7, align 8, !tbaa !11
  br label %40

40:                                               ; preds = %64, %20
  %41 = load ptr, ptr %7, align 8, !tbaa !11
  %42 = icmp ne ptr %41, null
  br i1 %42, label %43, label %71

43:                                               ; preds = %40
  %44 = load ptr, ptr %7, align 8, !tbaa !11
  %45 = getelementptr inbounds nuw %struct.tr2_tgt, ptr %44, i32 0, i32 0
  %46 = load ptr, ptr %45, align 8, !tbaa !13
  %47 = call i32 @tr2_dst_trace_want(ptr noundef %46)
  %48 = icmp ne i32 %47, 0
  br i1 %48, label %49, label %63

49:                                               ; preds = %43
  %50 = load ptr, ptr %7, align 8, !tbaa !11
  %51 = getelementptr inbounds nuw %struct.tr2_tgt, ptr %50, i32 0, i32 14
  %52 = load ptr, ptr %51, align 8, !tbaa !59
  %53 = icmp ne ptr %52, null
  br i1 %53, label %54, label %62

54:                                               ; preds = %49
  %55 = load ptr, ptr %7, align 8, !tbaa !11
  %56 = getelementptr inbounds nuw %struct.tr2_tgt, ptr %55, i32 0, i32 14
  %57 = load ptr, ptr %56, align 8, !tbaa !59
  %58 = load ptr, ptr %4, align 8, !tbaa !4
  %59 = load i32, ptr %5, align 4, !tbaa !9
  %60 = load i64, ptr %10, align 8, !tbaa !21
  %61 = load ptr, ptr %6, align 8, !tbaa !52
  call void %57(ptr noundef %58, i32 noundef %59, i64 noundef %60, ptr noundef %61)
  br label %62

62:                                               ; preds = %54, %49
  br label %63

63:                                               ; preds = %62, %43
  br label %64

64:                                               ; preds = %63
  %65 = load i32, ptr %8, align 4, !tbaa !9
  %66 = add nsw i32 %65, 1
  store i32 %66, ptr %8, align 4, !tbaa !9
  %67 = load i32, ptr %8, align 4, !tbaa !9
  %68 = sext i32 %67 to i64
  %69 = getelementptr inbounds [4 x ptr], ptr @tr2_tgt_builtins, i64 0, i64 %68
  %70 = load ptr, ptr %69, align 8, !tbaa !11
  store ptr %70, ptr %7, align 8, !tbaa !11
  br label %40, !llvm.loop !60

71:                                               ; preds = %40
  %72 = load ptr, ptr %6, align 8, !tbaa !52
  %73 = getelementptr inbounds nuw %struct.child_process, ptr %72, i32 0, i32 0
  %74 = getelementptr inbounds nuw %struct.strvec, ptr %73, i32 0, i32 0
  %75 = load ptr, ptr %74, align 8, !tbaa !54
  %76 = load ptr, ptr %11, align 8, !tbaa !27
  %77 = icmp ne ptr %75, %76
  br i1 %77, label %78, label %88

78:                                               ; preds = %71
  %79 = load ptr, ptr %6, align 8, !tbaa !52
  %80 = getelementptr inbounds nuw %struct.child_process, ptr %79, i32 0, i32 0
  %81 = getelementptr inbounds nuw %struct.strvec, ptr %80, i32 0, i32 0
  %82 = load ptr, ptr %81, align 8, !tbaa !54
  %83 = load ptr, ptr %11, align 8, !tbaa !27
  call void @free_redacted_argv(ptr noundef %82, ptr noundef %83)
  %84 = load ptr, ptr %11, align 8, !tbaa !27
  %85 = load ptr, ptr %6, align 8, !tbaa !52
  %86 = getelementptr inbounds nuw %struct.child_process, ptr %85, i32 0, i32 0
  %87 = getelementptr inbounds nuw %struct.strvec, ptr %86, i32 0, i32 0
  store ptr %84, ptr %87, align 8, !tbaa !54
  br label %88

88:                                               ; preds = %78, %71
  store i32 0, ptr %12, align 4
  br label %89

89:                                               ; preds = %88, %19
  call void @llvm.lifetime.end.p0(i64 8, ptr %11) #9
  call void @llvm.lifetime.end.p0(i64 8, ptr %10) #9
  call void @llvm.lifetime.end.p0(i64 8, ptr %9) #9
  call void @llvm.lifetime.end.p0(i64 4, ptr %8) #9
  call void @llvm.lifetime.end.p0(i64 8, ptr %7) #9
  %90 = load i32, ptr %12, align 4
  switch i32 %90, label %92 [
    i32 0, label %91
    i32 1, label %91
  ]

91:                                               ; preds = %89, %89
  ret void

92:                                               ; preds = %89
  unreachable
}