; Function Attrs: nounwind uwtable
define dso_local void @trace2_child_start_fl(ptr noundef %0, i32 noundef %1, ptr noundef %2) local_unnamed_addr #0 {
  %4 = load ptr, ptr %2, align 8, !tbaa !50
  %.b = load i1, ptr @trace2_enabled, align 4
  br i1 %.b, label %5, label %33

5:                                                ; preds = %3
  %6 = tail call i64 @getnanotime() #11
  %7 = udiv i64 %6, 1000
  %8 = tail call i64 @tr2tls_absolute_elapsed(i64 noundef %7) #11
  %9 = tail call i32 @tr2tls_locked_increment(ptr noundef nonnull @tr2_next_child_id) #11
  %10 = getelementptr inbounds nuw i8, ptr %2, i64 52
  store i32 %9, ptr %10, align 4, !tbaa !55
  %11 = getelementptr inbounds nuw i8, ptr %2, i64 56
  store i64 %7, ptr %11, align 8, !tbaa !56
  %12 = tail call fastcc ptr @redact_argv(ptr noundef %4)
  store ptr %12, ptr %2, align 8, !tbaa !50
  br label %13

13:                                               ; preds = %5, %20
  %indvars.iv = phi i64 [ 0, %5 ], [ %indvars.iv.next, %20 ]
  %.031 = phi ptr [ @tr2_tgt_normal, %5 ], [ %22, %20 ]
  %14 = load ptr, ptr %.031, align 8, !tbaa !14
  %15 = tail call i32 @tr2_dst_trace_want(ptr noundef %14) #11
  %.not28 = icmp eq i32 %15, 0
  br i1 %.not28, label %20, label %16

16:                                               ; preds = %13
  %17 = getelementptr inbounds nuw i8, ptr %.031, i64 112
  %18 = load ptr, ptr %17, align 8, !tbaa !57
  %.not29 = icmp eq ptr %18, null
  br i1 %.not29, label %20, label %19

19:                                               ; preds = %16
  tail call void %18(ptr noundef %0, i32 noundef %1, i64 noundef %8, ptr noundef nonnull %2) #11
  br label %20

20:                                               ; preds = %13, %19, %16
  %indvars.iv.next = add nuw nsw i64 %indvars.iv, 1
  %21 = getelementptr inbounds nuw [4 x ptr], ptr @tr2_tgt_builtins, i64 0, i64 %indvars.iv.next
  %22 = load ptr, ptr %21, align 8, !tbaa !10
  %.not = icmp eq i64 %indvars.iv.next, 3
  br i1 %.not, label %23, label %13, !llvm.loop !58

23:                                               ; preds = %20
  %24 = load ptr, ptr %2, align 8, !tbaa !50
  %.not27 = icmp eq ptr %24, %4
  br i1 %.not27, label %33, label %.preheader.i

.preheader.i:                                     ; preds = %23
  %25 = load ptr, ptr %4, align 8, !tbaa !27
  %.not1517.i = icmp eq ptr %25, null
  br i1 %.not1517.i, label %free_redacted_argv.exit, label %.lr.ph.i

.lr.ph.i:                                         ; preds = %.preheader.i, %30
  %indvars.iv.i = phi i64 [ %indvars.iv.next.i, %30 ], [ 0, %.preheader.i ]
  %26 = phi ptr [ %32, %30 ], [ %25, %.preheader.i ]
  %27 = getelementptr inbounds nuw ptr, ptr %24, i64 %indvars.iv.i
  %28 = load ptr, ptr %27, align 8, !tbaa !27
  %.not16.i = icmp eq ptr %28, %26
  br i1 %.not16.i, label %30, label %29

29:                                               ; preds = %.lr.ph.i
  tail call void @free(ptr noundef %28) #11
  br label %30

30:                                               ; preds = %29, %.lr.ph.i
  %indvars.iv.next.i = add nuw nsw i64 %indvars.iv.i, 1
  %31 = getelementptr inbounds nuw ptr, ptr %4, i64 %indvars.iv.next.i
  %32 = load ptr, ptr %31, align 8, !tbaa !27
  %.not15.i = icmp eq ptr %32, null
  br i1 %.not15.i, label %free_redacted_argv.exit, label %.lr.ph.i, !llvm.loop !29

free_redacted_argv.exit:                          ; preds = %30, %.preheader.i
  tail call void @free(ptr noundef %24) #11
  store ptr %4, ptr %2, align 8, !tbaa !50
  br label %33

33:                                               ; preds = %23, %free_redacted_argv.exit, %3
  ret void
}